target datalayout = "e-m:e-p270:32:32-p271:32:32-p272:64:64-i64:64-i128:128-f80:128-n8:16:32:64-S128"
target triple = "x86_64-pc-linux-gnu"

%union.ImGL3WProcs = type { [59 x ptr] }
%struct.anon.0 = type { ptr, ptr, ptr, ptr, ptr, ptr, ptr, ptr, ptr, ptr, ptr, ptr, ptr, ptr, ptr, ptr, ptr, ptr, ptr, ptr, ptr, ptr, ptr, ptr, ptr, ptr, ptr, ptr, ptr, ptr, ptr, ptr, ptr, ptr, ptr, ptr, ptr, ptr, ptr, ptr, ptr, ptr, ptr, ptr, ptr, ptr, ptr, ptr, ptr, ptr, ptr, ptr, ptr, ptr, ptr, ptr, ptr, ptr, ptr }
%struct.ImGuiIO = type { i32, i32, %struct.ImVec2, float, float, ptr, ptr, ptr, ptr, float, i8, ptr, %struct.ImVec2, i8, i8, i8, i8, i8, i8, i8, i8, i8, i8, float, float, float, float, float, float, i8, i8, i8, i8, i8, i8, i8, i8, i8, i8, ptr, ptr, ptr, ptr, ptr, i8, i8, i8, i8, i8, i8, i8, float, i32, i32, i32, i32, %struct.ImVec2, ptr, %struct.ImVec2, [5 x i8], float, float, i32, i8, i8, i8, i8, i32, [154 x %struct.ImGuiKeyData], i8, %struct.ImVec2, [5 x %struct.ImVec2], [5 x double], [5 x i8], [5 x i8], [5 x i16], [5 x i16], [5 x i8], [5 x i8], [5 x i8], i8, i8, [5 x float], [5 x float], [5 x float], float, i8, i8, i8, i8, i16, %struct.ImVector }
%struct.ImGuiKeyData = type { i8, float, float, float }
%struct.ImVec2 = type { float, float }
%struct.ImVector = type { i32, i32, ptr }
%struct.ImGui_ImplOpenGL3_Data = type <{ i32, [32 x i8], i8, i8, i8, i8, i32, i32, i32, i32, i32, i32, i32, i32, i32, i32, i64, i64, i8, i8, i8, [5 x i8] }>
%struct.ImVector.11 = type { i32, i32, ptr }

@imgl3wProcs = dso_local global %union.ImGL3WProcs zeroinitializer, align 8
@stderr = external global ptr, align 8
@.str.92 = private unnamed_addr constant [83 x i8] c"ERROR: ImGui_ImplOpenGL3_CreateDeviceObjects: failed to compile %s! With GLSL: %s\0A\00", align 1
@.str.93 = private unnamed_addr constant [4 x i8] c"%s\0A\00", align 1

; Function Attrs: inlinehint mustprogress uwtable
define linkonce_odr dso_local void @_ZN8ImVectorIcE7reserveEi(ptr noundef nonnull align 8 dereferenceable(16) %0, i32 noundef %1) #9 comdat align 2 {
  %3 = alloca ptr, align 8
  %4 = alloca i32, align 4
  %5 = alloca ptr, align 8
  store ptr %0, ptr %3, align 8, !tbaa !136
  store i32 %1, ptr %4, align 4, !tbaa !4
  %6 = load ptr, ptr %3, align 8
  %7 = load i32, ptr %4, align 4, !tbaa !4
  %8 = getelementptr inbounds nuw %struct.ImVector.11, ptr %6, i32 0, i32 1
  %9 = load i32, ptr %8, align 4, !tbaa !138
  %10 = icmp sle i32 %7, %9
  br i1 %10, label %11, label %12

11:                                               ; preds = %2
  br label %35

12:                                               ; preds = %2
  call void @llvm.lifetime.start.p0(i64 8, ptr %5) #11
  %13 = load i32, ptr %4, align 4, !tbaa !4
  %14 = sext i32 %13 to i64
  %15 = mul i64 %14, 1
  %16 = call noundef ptr @_ZN5ImGui8MemAllocEm(i64 noundef %15)
  store ptr %16, ptr %5, align 8, !tbaa !10
  %17 = getelementptr inbounds nuw %struct.ImVector.11, ptr %6, i32 0, i32 2
  %18 = load ptr, ptr %17, align 8, !tbaa !141
  %19 = icmp ne ptr %18, null
  br i1 %19, label %20, label %30

20:                                               ; preds = %12
  %21 = load ptr, ptr %5, align 8, !tbaa !10
  %22 = getelementptr inbounds nuw %struct.ImVector.11, ptr %6, i32 0, i32 2
  %23 = load ptr, ptr %22, align 8, !tbaa !141
  %24 = getelementptr inbounds nuw %struct.ImVector.11, ptr %6, i32 0, i32 0
  %25 = load i32, ptr %24, align 8, !tbaa !140
  %26 = sext i32 %25 to i64
  %27 = mul i64 %26, 1
  call void @llvm.memcpy.p0.p0.i64(ptr align 1 %21, ptr align 1 %23, i64 %27, i1 false)
  %28 = getelementptr inbounds nuw %struct.ImVector.11, ptr %6, i32 0, i32 2
  %29 = load ptr, ptr %28, align 8, !tbaa !141
  call void @_ZN5ImGui7MemFreeEPv(ptr noundef %29)
  br label %30

30:                                               ; preds = %20, %12
  %31 = load ptr, ptr %5, align 8, !tbaa !10
  %32 = getelementptr inbounds nuw %struct.ImVector.11, ptr %6, i32 0, i32 2
  store ptr %31, ptr %32, align 8, !tbaa !141
  %33 = load i32, ptr %4, align 4, !tbaa !4
  %34 = getelementptr inbounds nuw %struct.ImVector.11, ptr %6, i32 0, i32 1
  store i32 %33, ptr %34, align 4, !tbaa !138
  call void @llvm.lifetime.end.p0(i64 8, ptr %5) #11
  br label %35

35:                                               ; preds = %30, %11
  ret void
}

; Function Attrs: inlinehint mustprogress nounwind uwtable
define linkonce_odr dso_local noundef i32 @_ZNK8ImVectorIcE14_grow_capacityEi(ptr noundef nonnull align 8 dereferenceable(16) %0, i32 noundef %1) #5 comdat align 2 {
  %3 = alloca ptr, align 8
  %4 = alloca i32, align 4
  %5 = alloca i32, align 4
  store ptr %0, ptr %3, align 8, !tbaa !136
  store i32 %1, ptr %4, align 4, !tbaa !4
  %6 = load ptr, ptr %3, align 8
  call void @llvm.lifetime.start.p0(i64 4, ptr %5) #11
  %7 = getelementptr inbounds nuw %struct.ImVector.11, ptr %6, i32 0, i32 1
  %8 = load i32, ptr %7, align 4, !tbaa !138
  %9 = icmp ne i32 %8, 0
  br i1 %9, label %10, label %17

10:                                               ; preds = %2
  %11 = getelementptr inbounds nuw %struct.ImVector.11, ptr %6, i32 0, i32 1
  %12 = load i32, ptr %11, align 4, !tbaa !138
  %13 = getelementptr inbounds nuw %struct.ImVector.11, ptr %6, i32 0, i32 1
  %14 = load i32, ptr %13, align 4, !tbaa !138
  %15 = sdiv i32 %14, 2
  %16 = add nsw i32 %12, %15
  br label %18

17:                                               ; preds = %2
  br label %18

18:                                               ; preds = %17, %10
  %19 = phi i32 [ %16, %10 ], [ 8, %17 ]
  store i32 %19, ptr %5, align 4, !tbaa !4
  %20 = load i32, ptr %5, align 4, !tbaa !4
  %21 = load i32, ptr %4, align 4, !tbaa !4
  %22 = icmp sgt i32 %20, %21
  br i1 %22, label %23, label %25

23:                                               ; preds = %18
  %24 = load i32, ptr %5, align 4, !tbaa !4
  br label %27

25:                                               ; preds = %18
  %26 = load i32, ptr %4, align 4, !tbaa !4
  br label %27

27:                                               ; preds = %25, %23
  %28 = phi i32 [ %24, %23 ], [ %26, %25 ]
  call void @llvm.lifetime.end.p0(i64 4, ptr %5) #11
  ret i32 %28
}

; Function Attrs: inlinehint mustprogress nounwind uwtable
define linkonce_odr dso_local noundef ptr @_ZN8ImVectorIcE5beginEv(ptr noundef nonnull align 8 dereferenceable(16) %0) #5 comdat align 2 {
  %2 = alloca ptr, align 8
  store ptr %0, ptr %2, align 8, !tbaa !136
  %3 = load ptr, ptr %2, align 8
  %4 = getelementptr inbounds nuw %struct.ImVector.11, ptr %3, i32 0, i32 2
  %5 = load ptr, ptr %4, align 8, !tbaa !141
  ret ptr %5
}

; Function Attrs: inlinehint mustprogress uwtable
define linkonce_odr dso_local void @_ZN8ImVectorIcE6resizeEi(ptr noundef nonnull align 8 dereferenceable(16) %0, i32 noundef %1) #9 comdat align 2 {
  %3 = alloca ptr, align 8
  %4 = alloca i32, align 4
  store ptr %0, ptr %3, align 8, !tbaa !136
  store i32 %1, ptr %4, align 4, !tbaa !4
  %5 = load ptr, ptr %3, align 8
  %6 = load i32, ptr %4, align 4, !tbaa !4
  %7 = getelementptr inbounds nuw %struct.ImVector.11, ptr %5, i32 0, i32 1
  %8 = load i32, ptr %7, align 4, !tbaa !138
  %9 = icmp sgt i32 %6, %8
  br i1 %9, label %10, label %13

10:                                               ; preds = %2
  %11 = load i32, ptr %4, align 4, !tbaa !4
  %12 = call noundef i32 @_ZNK8ImVectorIcE14_grow_capacityEi(ptr noundef nonnull align 8 dereferenceable(16) %5, i32 noundef %11)
  call void @_ZN8ImVectorIcE7reserveEi(ptr noundef nonnull align 8 dereferenceable(16) %5, i32 noundef %12)
  br label %13

13:                                               ; preds = %10, %2
  %14 = load i32, ptr %4, align 4, !tbaa !4
  %15 = getelementptr inbounds nuw %struct.ImVector.11, ptr %5, i32 0, i32 0
  store i32 %14, ptr %15, align 8, !tbaa !140
  ret void
}

; Function Attrs: inlinehint mustprogress nounwind uwtable
define linkonce_odr dso_local void @_ZN8ImVectorIcEC2Ev(ptr noundef nonnull align 8 dereferenceable(16) %0) unnamed_addr #5 comdat align 2 {
  %2 = alloca ptr, align 8
  store ptr %0, ptr %2, align 8, !tbaa !136
  %3 = load ptr, ptr %2, align 8
  %4 = getelementptr inbounds nuw %struct.ImVector.11, ptr %3, i32 0, i32 1
  store i32 0, ptr %4, align 4, !tbaa !138
  %5 = getelementptr inbounds nuw %struct.ImVector.11, ptr %3, i32 0, i32 0
  store i32 0, ptr %5, align 8, !tbaa !140
  %6 = getelementptr inbounds nuw %struct.ImVector.11, ptr %3, i32 0, i32 2
  store ptr null, ptr %6, align 8, !tbaa !141
  ret void
}

; Function Attrs: mustprogress uwtable
define internal noundef ptr @_ZL32ImGui_ImplOpenGL3_GetBackendDatav() #0 {
  %1 = call noundef ptr @_ZN5ImGui17GetCurrentContextEv()
  %2 = icmp ne ptr %1, null
  br i1 %2, label %3, label %7

3:                                                ; preds = %0
  %4 = call noundef nonnull align 8 dereferenceable(2944) ptr @_ZN5ImGui5GetIOEv()
  %5 = getelementptr inbounds nuw %struct.ImGuiIO, ptr %4, i32 0, i32 42
  %6 = load ptr, ptr %5, align 8, !tbaa !26
  br label %8

7:                                                ; preds = %0
  br label %8

8:                                                ; preds = %7, %3
  %9 = phi ptr [ %6, %3 ], [ null, %7 ]
  ret ptr %9
}

; Function Attrs: mustprogress uwtable
define internal noundef zeroext i1 @_ZL11CheckShaderjPKc(i32 noundef %0, ptr noundef %1) #0 personality ptr @__gxx_personality_v0 {
  %3 = alloca i32, align 4
  %4 = alloca ptr, align 8
  %5 = alloca ptr, align 8
  %6 = alloca i32, align 4
  %7 = alloca i32, align 4
  %8 = alloca %struct.ImVector.11, align 8
  %9 = alloca ptr, align 8
  %10 = alloca i32, align 4
  store i32 %0, ptr %3, align 4, !tbaa !4
  store ptr %1, ptr %4, align 8, !tbaa !10
  call void @llvm.lifetime.start.p0(i64 8, ptr %5) #11
  %11 = call noundef ptr @_ZL32ImGui_ImplOpenGL3_GetBackendDatav()
  store ptr %11, ptr %5, align 8, !tbaa !24
  call void @llvm.lifetime.start.p0(i64 4, ptr %6) #11
  store i32 0, ptr %6, align 4, !tbaa !4
  call void @llvm.lifetime.start.p0(i64 4, ptr %7) #11
  store i32 0, ptr %7, align 4, !tbaa !4
  %12 = load ptr, ptr getelementptr inbounds nuw (%struct.anon.0, ptr @imgl3wProcs, i32 0, i32 38), align 8, !tbaa !14
  %13 = load i32, ptr %3, align 4, !tbaa !4
  call void %12(i32 noundef %13, i32 noundef 35713, ptr noundef %6)
  %14 = load ptr, ptr getelementptr inbounds nuw (%struct.anon.0, ptr @imgl3wProcs, i32 0, i32 38), align 8, !tbaa !14
  %15 = load i32, ptr %3, align 4, !tbaa !4
  call void %14(i32 noundef %15, i32 noundef 35716, ptr noundef %7)
  %16 = load i32, ptr %6, align 4, !tbaa !4
  %17 = trunc i32 %16 to i8
  %18 = zext i8 %17 to i32
  %19 = icmp eq i32 %18, 0
  br i1 %19, label %20, label %27

20:                                               ; preds = %2
  %21 = load ptr, ptr @stderr, align 8, !tbaa !22
  %22 = load ptr, ptr %4, align 8, !tbaa !10
  %23 = load ptr, ptr %5, align 8, !tbaa !24
  %24 = getelementptr inbounds nuw %struct.ImGui_ImplOpenGL3_Data, ptr %23, i32 0, i32 1
  %25 = getelementptr inbounds [32 x i8], ptr %24, i64 0, i64 0
  %26 = call i32 (ptr, ptr, ...) @fprintf(ptr noundef %21, ptr noundef @.str.92, ptr noundef %22, ptr noundef %25) #11
  br label %27

27:                                               ; preds = %20, %2
  %28 = load i32, ptr %7, align 4, !tbaa !4
  %29 = icmp sgt i32 %28, 1
  br i1 %29, label %30, label %48

30:                                               ; preds = %27
  call void @llvm.lifetime.start.p0(i64 16, ptr %8) #11
  call void @_ZN8ImVectorIcEC2Ev(ptr noundef nonnull align 8 dereferenceable(16) %8)
  %31 = load i32, ptr %7, align 4, !tbaa !4
  %32 = add nsw i32 %31, 1
  invoke void @_ZN8ImVectorIcE6resizeEi(ptr noundef nonnull align 8 dereferenceable(16) %8, i32 noundef %32)
          to label %33 unwind label %44

33:                                               ; preds = %30
  %34 = load ptr, ptr getelementptr inbounds nuw (%struct.anon.0, ptr @imgl3wProcs, i32 0, i32 37), align 8, !tbaa !14
  %35 = load i32, ptr %3, align 4, !tbaa !4
  %36 = load i32, ptr %7, align 4, !tbaa !4
  %37 = invoke noundef ptr @_ZN8ImVectorIcE5beginEv(ptr noundef nonnull align 8 dereferenceable(16) %8)
          to label %38 unwind label %44

38:                                               ; preds = %33
  invoke void %34(i32 noundef %35, i32 noundef %36, ptr noundef null, ptr noundef %37)
          to label %39 unwind label %44

39:                                               ; preds = %38
  %40 = load ptr, ptr @stderr, align 8, !tbaa !22
  %41 = invoke noundef ptr @_ZN8ImVectorIcE5beginEv(ptr noundef nonnull align 8 dereferenceable(16) %8)
          to label %42 unwind label %44

42:                                               ; preds = %39
  %43 = call i32 (ptr, ptr, ...) @fprintf(ptr noundef %40, ptr noundef @.str.93, ptr noundef %41) #11
  call void @_ZN8ImVectorIcED2Ev(ptr noundef nonnull align 8 dereferenceable(16) %8) #11
  call void @llvm.lifetime.end.p0(i64 16, ptr %8) #11
  br label %48

44:                                               ; preds = %39, %38, %33, %30
  %45 = landingpad { ptr, i32 }
          cleanup
  %46 = extractvalue { ptr, i32 } %45, 0
  store ptr %46, ptr %9, align 8
  %47 = extractvalue { ptr, i32 } %45, 1
  store i32 %47, ptr %10, align 4
  call void @_ZN8ImVectorIcED2Ev(ptr noundef nonnull align 8 dereferenceable(16) %8) #11
  call void @llvm.lifetime.end.p0(i64 16, ptr %8) #11
  call void @llvm.lifetime.end.p0(i64 4, ptr %7) #11
  call void @llvm.lifetime.end.p0(i64 4, ptr %6) #11
  call void @llvm.lifetime.end.p0(i64 8, ptr %5) #11
  br label %53

48:                                               ; preds = %42, %27
  %49 = load i32, ptr %6, align 4, !tbaa !4
  %50 = trunc i32 %49 to i8
  %51 = zext i8 %50 to i32
  %52 = icmp eq i32 %51, 1
  call void @llvm.lifetime.end.p0(i64 4, ptr %7) #11
  call void @llvm.lifetime.end.p0(i64 4, ptr %6) #11
  call void @llvm.lifetime.end.p0(i64 8, ptr %5) #11
  ret i1 %52

53:                                               ; preds = %44
  %54 = load ptr, ptr %9, align 8
  %55 = load i32, ptr %10, align 4
  %56 = insertvalue { ptr, i32 } poison, ptr %54, 0
  %57 = insertvalue { ptr, i32 } %56, i32 %55, 1
  resume { ptr, i32 } %57
}