; Function Attrs: mustprogress uwtable
define internal fastcc void @_ZL11CheckShaderjPKc(i32 noundef %0, ptr noundef %1) unnamed_addr #0 personality ptr @__gxx_personality_v0 {
  %3 = alloca i32, align 4
  %4 = alloca i32, align 4
  %5 = alloca %struct.ImVector.11, align 8
  %6 = tail call noundef ptr @_ZN5ImGui17GetCurrentContextEv()
  %.not.i = icmp eq ptr %6, null
  br i1 %.not.i, label %_ZL32ImGui_ImplOpenGL3_GetBackendDatav.exit, label %7

7:                                                ; preds = %2
  %8 = tail call noundef nonnull align 8 dereferenceable(2944) ptr @_ZN5ImGui5GetIOEv()
  %9 = getelementptr inbounds nuw i8, ptr %8, i64 152
  %10 = load ptr, ptr %9, align 8, !tbaa !19
  br label %_ZL32ImGui_ImplOpenGL3_GetBackendDatav.exit

_ZL32ImGui_ImplOpenGL3_GetBackendDatav.exit:      ; preds = %2, %7
  %11 = phi ptr [ %10, %7 ], [ null, %2 ]
  call void @llvm.lifetime.start.p0(i64 4, ptr nonnull %3) #17
  store i32 0, ptr %3, align 4, !tbaa !32
  call void @llvm.lifetime.start.p0(i64 4, ptr nonnull %4) #17
  store i32 0, ptr %4, align 4, !tbaa !32
  %12 = load ptr, ptr getelementptr inbounds nuw (i8, ptr @imgl3wProcs, i64 304), align 8, !tbaa !10
  call void %12(i32 noundef %0, i32 noundef 35713, ptr noundef nonnull %3)
  %13 = load ptr, ptr getelementptr inbounds nuw (i8, ptr @imgl3wProcs, i64 304), align 8, !tbaa !10
  call void %13(i32 noundef %0, i32 noundef 35716, ptr noundef nonnull %4)
  %14 = load i32, ptr %3, align 4, !tbaa !32
  %15 = and i32 %14, 255
  %16 = icmp eq i32 %15, 0
  br i1 %16, label %17, label %21

17:                                               ; preds = %_ZL32ImGui_ImplOpenGL3_GetBackendDatav.exit
  %18 = load ptr, ptr @stderr, align 8, !tbaa !17
  %19 = getelementptr inbounds nuw i8, ptr %11, i64 4
  %20 = call i32 (ptr, ptr, ...) @fprintf(ptr noundef %18, ptr noundef nonnull @.str.92, ptr noundef %1, ptr noundef nonnull %19) #20
  br label %21

21:                                               ; preds = %17, %_ZL32ImGui_ImplOpenGL3_GetBackendDatav.exit
  %22 = load i32, ptr %4, align 4, !tbaa !32
  %23 = icmp sgt i32 %22, 1
  br i1 %23, label %_ZNK8ImVectorIcE14_grow_capacityEi.exit.i, label %41

_ZNK8ImVectorIcE14_grow_capacityEi.exit.i:        ; preds = %21
  call void @llvm.lifetime.start.p0(i64 16, ptr nonnull %5) #17
  call void @llvm.memset.p0.i64(ptr noundef nonnull align 8 dereferenceable(16) %5, i8 0, i64 16, i1 false)
  %24 = add nuw nsw i32 %22, 1
  %25 = call i32 @llvm.umax.i32(i32 %24, i32 8)
  %26 = zext nneg i32 %25 to i64
  %27 = invoke noundef ptr @_ZN5ImGui8MemAllocEm(i64 noundef %26)
          to label %28 unwind label %39

28:                                               ; preds = %_ZNK8ImVectorIcE14_grow_capacityEi.exit.i
  %29 = getelementptr inbounds nuw i8, ptr %5, i64 4
  %30 = getelementptr inbounds nuw i8, ptr %5, i64 8
  %.pre.pre = load i32, ptr %4, align 4, !tbaa !32
  store ptr %27, ptr %30, align 8, !tbaa !62
  store i32 %25, ptr %29, align 4, !tbaa !64
  store i32 %24, ptr %5, align 8, !tbaa !65
  %31 = load ptr, ptr getelementptr inbounds nuw (i8, ptr @imgl3wProcs, i64 296), align 8, !tbaa !10
  invoke void %31(i32 noundef %0, i32 noundef %.pre.pre, ptr noundef null, ptr noundef %27)
          to label %32 unwind label %39

32:                                               ; preds = %28
  %33 = load ptr, ptr @stderr, align 8, !tbaa !17
  %34 = call i32 (ptr, ptr, ...) @fprintf(ptr noundef %33, ptr noundef nonnull @.str.93, ptr noundef %27) #20
  %.not.i7 = icmp eq ptr %27, null
  br i1 %.not.i7, label %_ZN8ImVectorIcED2Ev.exit, label %35

35:                                               ; preds = %32
  invoke void @_ZN5ImGui7MemFreeEPv(ptr noundef nonnull %27)
          to label %_ZN8ImVectorIcED2Ev.exit unwind label %36

36:                                               ; preds = %35
  %37 = landingpad { ptr, i32 }
          catch ptr null
  %38 = extractvalue { ptr, i32 } %37, 0
  call void @__clang_call_terminate(ptr %38) #21
  unreachable

_ZN8ImVectorIcED2Ev.exit:                         ; preds = %32, %35
  call void @llvm.lifetime.end.p0(i64 16, ptr nonnull %5) #17
  br label %41

39:                                               ; preds = %_ZNK8ImVectorIcE14_grow_capacityEi.exit.i, %28
  %40 = landingpad { ptr, i32 }
          cleanup
  call void @_ZN8ImVectorIcED2Ev(ptr noundef nonnull align 8 dereferenceable(16) %5) #17
  call void @llvm.lifetime.end.p0(i64 16, ptr nonnull %5) #17
  call void @llvm.lifetime.end.p0(i64 4, ptr nonnull %4) #17
  call void @llvm.lifetime.end.p0(i64 4, ptr nonnull %3) #17
  resume { ptr, i32 } %40

41:                                               ; preds = %_ZN8ImVectorIcED2Ev.exit, %21
  call void @llvm.lifetime.end.p0(i64 4, ptr nonnull %4) #17
  call void @llvm.lifetime.end.p0(i64 4, ptr nonnull %3) #17
  ret void
}